target datalayout = "e-m:e-p270:32:32-p271:32:32-p272:64:64-i64:64-i128:128-f80:128-n8:16:32:64-S128"
target triple = "x86_64-unknown-linux-gnu"

%"class.QuantLib::FdmHestonGreensFct" = type <{ double, %"class.boost::shared_ptr.8", %"class.boost::shared_ptr.9", i32, [4 x i8] }>
%"class.boost::shared_ptr.8" = type { ptr, %"class.boost::detail::shared_count" }
%"class.boost::detail::shared_count" = type { ptr }
%"class.boost::shared_ptr.9" = type { ptr, %"class.boost::detail::shared_count" }

; Function Attrs: mustprogress nounwind uwtable
define linkonce_odr void @_ZN5boost6detail12shared_countC2EOS1_(ptr noundef nonnull align 8 dereferenceable(8) %this, ptr noundef nonnull align 8 dereferenceable(8) %r) unnamed_addr #6 comdat align 2 {
entry:
  %this.addr = alloca ptr, align 8
  %r.addr = alloca ptr, align 8
  store ptr %this, ptr %this.addr, align 8, !tbaa !3
  store ptr %r, ptr %r.addr, align 8, !tbaa !3
  %this1 = load ptr, ptr %this.addr, align 8
  %pi_ = getelementptr inbounds nuw %"class.boost::detail::shared_count", ptr %this1, i32 0, i32 0
  %0 = load ptr, ptr %r.addr, align 8, !tbaa !3
  %pi_2 = getelementptr inbounds nuw %"class.boost::detail::shared_count", ptr %0, i32 0, i32 0
  %1 = load ptr, ptr %pi_2, align 8, !tbaa !85
  store ptr %1, ptr %pi_, align 8, !tbaa !85
  %2 = load ptr, ptr %r.addr, align 8, !tbaa !3
  %pi_3 = getelementptr inbounds nuw %"class.boost::detail::shared_count", ptr %2, i32 0, i32 0
  store ptr null, ptr %pi_3, align 8, !tbaa !85
  ret void
}

; Function Attrs: mustprogress nounwind uwtable
define linkonce_odr void @_ZN5boost10shared_ptrIN8QuantLib13HestonProcessEEC2EOS3_(ptr noundef nonnull align 8 dereferenceable(16) %this, ptr noundef nonnull align 8 dereferenceable(16) %r) unnamed_addr #6 comdat align 2 {
entry:
  %this.addr = alloca ptr, align 8
  %r.addr = alloca ptr, align 8
  store ptr %this, ptr %this.addr, align 8, !tbaa !3
  store ptr %r, ptr %r.addr, align 8, !tbaa !3
  %this1 = load ptr, ptr %this.addr, align 8
  %px = getelementptr inbounds nuw %"class.boost::shared_ptr.9", ptr %this1, i32 0, i32 0
  %0 = load ptr, ptr %r.addr, align 8, !tbaa !3
  %px2 = getelementptr inbounds nuw %"class.boost::shared_ptr.9", ptr %0, i32 0, i32 0
  %1 = load ptr, ptr %px2, align 8, !tbaa !18
  store ptr %1, ptr %px, align 8, !tbaa !18
  %pn = getelementptr inbounds nuw %"class.boost::shared_ptr.9", ptr %this1, i32 0, i32 1
  %2 = load ptr, ptr %r.addr, align 8, !tbaa !3
  %pn3 = getelementptr inbounds nuw %"class.boost::shared_ptr.9", ptr %2, i32 0, i32 1
  call void @_ZN5boost6detail12shared_countC2EOS1_(ptr noundef nonnull align 8 dereferenceable(8) %pn, ptr noundef nonnull align 8 dereferenceable(8) %pn3) #3
  %3 = load ptr, ptr %r.addr, align 8, !tbaa !3
  %px4 = getelementptr inbounds nuw %"class.boost::shared_ptr.9", ptr %3, i32 0, i32 0
  store ptr null, ptr %px4, align 8, !tbaa !18
  ret void
}

; Function Attrs: mustprogress nounwind uwtable
define linkonce_odr void @_ZN5boost10shared_ptrIN8QuantLib9FdmMesherEEC2EOS3_(ptr noundef nonnull align 8 dereferenceable(16) %this, ptr noundef nonnull align 8 dereferenceable(16) %r) unnamed_addr #6 comdat align 2 {
entry:
  %this.addr = alloca ptr, align 8
  %r.addr = alloca ptr, align 8
  store ptr %this, ptr %this.addr, align 8, !tbaa !3
  store ptr %r, ptr %r.addr, align 8, !tbaa !3
  %this1 = load ptr, ptr %this.addr, align 8
  %px = getelementptr inbounds nuw %"class.boost::shared_ptr.8", ptr %this1, i32 0, i32 0
  %0 = load ptr, ptr %r.addr, align 8, !tbaa !3
  %px2 = getelementptr inbounds nuw %"class.boost::shared_ptr.8", ptr %0, i32 0, i32 0
  %1 = load ptr, ptr %px2, align 8, !tbaa !17
  store ptr %1, ptr %px, align 8, !tbaa !17
  %pn = getelementptr inbounds nuw %"class.boost::shared_ptr.8", ptr %this1, i32 0, i32 1
  %2 = load ptr, ptr %r.addr, align 8, !tbaa !3
  %pn3 = getelementptr inbounds nuw %"class.boost::shared_ptr.8", ptr %2, i32 0, i32 1
  call void @_ZN5boost6detail12shared_countC2EOS1_(ptr noundef nonnull align 8 dereferenceable(8) %pn, ptr noundef nonnull align 8 dereferenceable(8) %pn3) #3
  %3 = load ptr, ptr %r.addr, align 8, !tbaa !3
  %px4 = getelementptr inbounds nuw %"class.boost::shared_ptr.8", ptr %3, i32 0, i32 0
  store ptr null, ptr %px4, align 8, !tbaa !17
  ret void
}

; Function Attrs: mustprogress nounwind uwtable
define void @_ZN8QuantLib18FdmHestonGreensFctC2EN5boost10shared_ptrINS_9FdmMesherEEENS2_INS_13HestonProcessEEENS_18FdmSquareRootFwdOp18TransformationTypeEd(ptr noundef nonnull align 8 dereferenceable(44) %this, ptr noundef %mesher, ptr noundef %process, i32 noundef %trafoType_, double noundef %l0) unnamed_addr #6 align 2 {
entry:
  %this.addr = alloca ptr, align 8
  %mesher.indirect_addr = alloca ptr, align 8
  %process.indirect_addr = alloca ptr, align 8
  %trafoType_.addr = alloca i32, align 4
  %l0.addr = alloca double, align 8
  store ptr %this, ptr %this.addr, align 8, !tbaa !3
  store ptr %mesher, ptr %mesher.indirect_addr, align 8, !tbaa !3
  store ptr %process, ptr %process.indirect_addr, align 8, !tbaa !3
  store i32 %trafoType_, ptr %trafoType_.addr, align 4, !tbaa !7
  store double %l0, ptr %l0.addr, align 8, !tbaa !9
  %this1 = load ptr, ptr %this.addr, align 8
  %l0_ = getelementptr inbounds nuw %"class.QuantLib::FdmHestonGreensFct", ptr %this1, i32 0, i32 0
  %0 = load double, ptr %l0.addr, align 8, !tbaa !9
  store double %0, ptr %l0_, align 8, !tbaa !11
  %mesher_ = getelementptr inbounds nuw %"class.QuantLib::FdmHestonGreensFct", ptr %this1, i32 0, i32 1
  call void @_ZN5boost10shared_ptrIN8QuantLib9FdmMesherEEC2EOS3_(ptr noundef nonnull align 8 dereferenceable(16) %mesher_, ptr noundef nonnull align 8 dereferenceable(16) %mesher) #3
  %process_ = getelementptr inbounds nuw %"class.QuantLib::FdmHestonGreensFct", ptr %this1, i32 0, i32 2
  call void @_ZN5boost10shared_ptrIN8QuantLib13HestonProcessEEC2EOS3_(ptr noundef nonnull align 8 dereferenceable(16) %process_, ptr noundef nonnull align 8 dereferenceable(16) %process) #3
  %trafoType_2 = getelementptr inbounds nuw %"class.QuantLib::FdmHestonGreensFct", ptr %this1, i32 0, i32 3
  %1 = load i32, ptr %trafoType_.addr, align 4, !tbaa !7
  store i32 %1, ptr %trafoType_2, align 8, !tbaa !16
  ret void
}