; Function Attrs: mustprogress nofree norecurse nosync nounwind willreturn memory(argmem: readwrite) uwtable
define void @_ZN8QuantLib18FdmHestonGreensFctC2EN5boost10shared_ptrINS_9FdmMesherEEENS2_INS_13HestonProcessEEENS_18FdmSquareRootFwdOp18TransformationTypeEd(ptr nocapture noundef nonnull writeonly align 8 dereferenceable(44) %this, ptr nocapture noundef %mesher, ptr nocapture noundef %process, i32 noundef %trafoType_, double noundef %l0) unnamed_addr #6 align 2 {
entry:
  store double %l0, ptr %this, align 8, !tbaa !3
  %mesher_ = getelementptr inbounds nuw i8, ptr %this, i64 8
  %0 = load ptr, ptr %mesher, align 8, !tbaa !13
  store ptr %0, ptr %mesher_, align 8, !tbaa !13
  %pn.i = getelementptr inbounds nuw i8, ptr %this, i64 16
  %pn3.i = getelementptr inbounds nuw i8, ptr %mesher, i64 8
  %1 = load ptr, ptr %pn3.i, align 8, !tbaa !14
  store ptr %1, ptr %pn.i, align 8, !tbaa !14
  tail call void @llvm.memset.p0.i64(ptr noundef nonnull align 8 dereferenceable(16) %mesher, i8 0, i64 16, i1 false)
  %process_ = getelementptr inbounds nuw i8, ptr %this, i64 24
  %2 = load ptr, ptr %process, align 8, !tbaa !15
  store ptr %2, ptr %process_, align 8, !tbaa !15
  %pn.i1 = getelementptr inbounds nuw i8, ptr %this, i64 32
  %pn3.i2 = getelementptr inbounds nuw i8, ptr %process, i64 8
  %3 = load ptr, ptr %pn3.i2, align 8, !tbaa !14
  store ptr %3, ptr %pn.i1, align 8, !tbaa !14
  tail call void @llvm.memset.p0.i64(ptr noundef nonnull align 8 dereferenceable(16) %process, i8 0, i64 16, i1 false)
  %trafoType_2 = getelementptr inbounds nuw i8, ptr %this, i64 40
  store i32 %trafoType_, ptr %trafoType_2, align 8, !tbaa !16
  ret void
}